; ModuleID = '5/201.c'
source_filename = "5/201.c"
target datalayout = "e-m:e-p270:32:32-p271:32:32-p272:64:64-i64:64-f80:128-n8:16:32:64-S128"
target triple = "x86_64-pc-linux-gnu"

@.str = private unnamed_addr constant [4 x i8] c"%lf\00", align 1
@.str.1 = private unnamed_addr constant [3 x i8] c"%s\00", align 1
@.str.2 = private unnamed_addr constant [6 x i8] c"error\00", align 1
@.str.3 = private unnamed_addr constant [7 x i8] c"error\0A\00", align 1
@.str.4 = private unnamed_addr constant [5 x i8] c"yes\0A\00", align 1
@.str.5 = private unnamed_addr constant [4 x i8] c"no\0A\00", align 1

; Function Attrs: noinline nounwind uwtable
define dso_local i32 @main() #0 {
  %1 = alloca i32, align 4
  %2 = alloca [2 x [510 x i8]], align 16
  %3 = alloca double, align 8
  %4 = alloca double, align 8
  %5 = alloca i32, align 4
  %6 = alloca i32, align 4
  %7 = alloca i32, align 4
  %8 = alloca i32, align 4
  %9 = alloca [2 x i32], align 4
  store i32 0, i32* %1, align 4
  store i32 0, i32* %7, align 4
  %10 = call i32 (i8*, ...) @__isoc99_scanf(i8* getelementptr inbounds ([4 x i8], [4 x i8]* @.str, i64 0, i64 0), double* %3)
  store i32 0, i32* %5, align 4
  br label %11

11:                                               ; preds = %80, %0
  %12 = load i32, i32* %5, align 4
  %13 = icmp slt i32 %12, 2
  br i1 %13, label %14, label %83

14:                                               ; preds = %11
  %15 = load i32, i32* %5, align 4
  %16 = sext i32 %15 to i64
  %17 = getelementptr inbounds [2 x [510 x i8]], [2 x [510 x i8]]* %2, i64 0, i64 %16
  %18 = call i32 (i8*, ...) @__isoc99_scanf(i8* getelementptr inbounds ([3 x i8], [3 x i8]* @.str.1, i64 0, i64 0), [510 x i8]* %17)
  %19 = getelementptr inbounds [2 x [510 x i8]], [2 x [510 x i8]]* %2, i64 0, i64 0
  %20 = getelementptr inbounds [510 x i8], [510 x i8]* %19, i64 0, i64 0
  %21 = call i64 @strlen(i8* %20) #3
  %22 = trunc i64 %21 to i32
  %23 = load i32, i32* %5, align 4
  %24 = sext i32 %23 to i64
  %25 = getelementptr inbounds [2 x i32], [2 x i32]* %9, i64 0, i64 %24
  store i32 %22, i32* %25, align 4
  store i32 0, i32* %8, align 4
  br label %26

26:                                               ; preds = %76, %14
  %27 = load i32, i32* %8, align 4
  %28 = load i32, i32* %5, align 4
  %29 = sext i32 %28 to i64
  %30 = getelementptr inbounds [2 x i32], [2 x i32]* %9, i64 0, i64 %29
  %31 = load i32, i32* %30, align 4
  %32 = icmp slt i32 %27, %31
  br i1 %32, label %33, label %79

33:                                               ; preds = %26
  %34 = load i32, i32* %5, align 4
  %35 = sext i32 %34 to i64
  %36 = getelementptr inbounds [2 x [510 x i8]], [2 x [510 x i8]]* %2, i64 0, i64 %35
  %37 = load i32, i32* %8, align 4
  %38 = sext i32 %37 to i64
  %39 = getelementptr inbounds [510 x i8], [510 x i8]* %36, i64 0, i64 %38
  %40 = load i8, i8* %39, align 1
  %41 = sext i8 %40 to i32
  %42 = icmp ne i32 %41, 65
  br i1 %42, label %43, label %75

43:                                               ; preds = %33
  %44 = load i32, i32* %5, align 4
  %45 = sext i32 %44 to i64
  %46 = getelementptr inbounds [2 x [510 x i8]], [2 x [510 x i8]]* %2, i64 0, i64 %45
  %47 = load i32, i32* %8, align 4
  %48 = sext i32 %47 to i64
  %49 = getelementptr inbounds [510 x i8], [510 x i8]* %46, i64 0, i64 %48
  %50 = load i8, i8* %49, align 1
  %51 = sext i8 %50 to i32
  %52 = icmp ne i32 %51, 84
  br i1 %52, label %53, label %75

53:                                               ; preds = %43
  %54 = load i32, i32* %5, align 4
  %55 = sext i32 %54 to i64
  %56 = getelementptr inbounds [2 x [510 x i8]], [2 x [510 x i8]]* %2, i64 0, i64 %55
  %57 = load i32, i32* %8, align 4
  %58 = sext i32 %57 to i64
  %59 = getelementptr inbounds [510 x i8], [510 x i8]* %56, i64 0, i64 %58
  %60 = load i8, i8* %59, align 1
  %61 = sext i8 %60 to i32
  %62 = icmp ne i32 %61, 71
  br i1 %62, label %63, label %75

63:                                               ; preds = %53
  %64 = load i32, i32* %5, align 4
  %65 = sext i32 %64 to i64
  %66 = getelementptr inbounds [2 x [510 x i8]], [2 x [510 x i8]]* %2, i64 0, i64 %65
  %67 = load i32, i32* %8, align 4
  %68 = sext i32 %67 to i64
  %69 = getelementptr inbounds [510 x i8], [510 x i8]* %66, i64 0, i64 %68
  %70 = load i8, i8* %69, align 1
  %71 = sext i8 %70 to i32
  %72 = icmp ne i32 %71, 67
  br i1 %72, label %73, label %75

73:                                               ; preds = %63
  %74 = call i32 (i8*, ...) @printf(i8* getelementptr inbounds ([6 x i8], [6 x i8]* @.str.2, i64 0, i64 0))
  store i32 0, i32* %1, align 4
  br label %134

75:                                               ; preds = %63, %53, %43, %33
  br label %76

76:                                               ; preds = %75
  %77 = load i32, i32* %8, align 4
  %78 = add nsw i32 %77, 1
  store i32 %78, i32* %8, align 4
  br label %26

79:                                               ; preds = %26
  br label %80

80:                                               ; preds = %79
  %81 = load i32, i32* %5, align 4
  %82 = add nsw i32 %81, 1
  store i32 %82, i32* %5, align 4
  br label %11

83:                                               ; preds = %11
  %84 = getelementptr inbounds [2 x i32], [2 x i32]* %9, i64 0, i64 0
  %85 = load i32, i32* %84, align 4
  %86 = getelementptr inbounds [2 x i32], [2 x i32]* %9, i64 0, i64 1
  %87 = load i32, i32* %86, align 4
  %88 = icmp ne i32 %85, %87
  br i1 %88, label %89, label %91

89:                                               ; preds = %83
  %90 = call i32 (i8*, ...) @printf(i8* getelementptr inbounds ([7 x i8], [7 x i8]* @.str.3, i64 0, i64 0))
  store i32 0, i32* %1, align 4
  br label %134

91:                                               ; preds = %83
  store i32 0, i32* %5, align 4
  br label %92

92:                                               ; preds = %115, %91
  %93 = load i32, i32* %5, align 4
  %94 = getelementptr inbounds [2 x i32], [2 x i32]* %9, i64 0, i64 0
  %95 = load i32, i32* %94, align 4
  %96 = icmp slt i32 %93, %95
  br i1 %96, label %97, label %118

97:                                               ; preds = %92
  %98 = getelementptr inbounds [2 x [510 x i8]], [2 x [510 x i8]]* %2, i64 0, i64 0
  %99 = load i32, i32* %5, align 4
  %100 = sext i32 %99 to i64
  %101 = getelementptr inbounds [510 x i8], [510 x i8]* %98, i64 0, i64 %100
  %102 = load i8, i8* %101, align 1
  %103 = sext i8 %102 to i32
  %104 = getelementptr inbounds [2 x [510 x i8]], [2 x [510 x i8]]* %2, i64 0, i64 1
  %105 = load i32, i32* %5, align 4
  %106 = sext i32 %105 to i64
  %107 = getelementptr inbounds [510 x i8], [510 x i8]* %104, i64 0, i64 %106
  %108 = load i8, i8* %107, align 1
  %109 = sext i8 %108 to i32
  %110 = icmp eq i32 %103, %109
  br i1 %110, label %111, label %114

111:                                              ; preds = %97
  %112 = load i32, i32* %7, align 4
  %113 = add nsw i32 %112, 1
  store i32 %113, i32* %7, align 4
  br label %114

114:                                              ; preds = %111, %97
  br label %115

115:                                              ; preds = %114
  %116 = load i32, i32* %5, align 4
  %117 = add nsw i32 %116, 1
  store i32 %117, i32* %5, align 4
  br label %92

118:                                              ; preds = %92
  %119 = load i32, i32* %7, align 4
  %120 = sitofp i32 %119 to double
  %121 = fmul double 1.000000e+00, %120
  %122 = getelementptr inbounds [2 x i32], [2 x i32]* %9, i64 0, i64 0
  %123 = load i32, i32* %122, align 4
  %124 = sitofp i32 %123 to double
  %125 = fdiv double %121, %124
  store double %125, double* %4, align 8
  %126 = load double, double* %4, align 8
  %127 = load double, double* %3, align 8
  %128 = fcmp ogt double %126, %127
  br i1 %128, label %129, label %131

129:                                              ; preds = %118
  %130 = call i32 (i8*, ...) @printf(i8* getelementptr inbounds ([5 x i8], [5 x i8]* @.str.4, i64 0, i64 0))
  br label %133

131:                                              ; preds = %118
  %132 = call i32 (i8*, ...) @printf(i8* getelementptr inbounds ([4 x i8], [4 x i8]* @.str.5, i64 0, i64 0))
  br label %133

133:                                              ; preds = %131, %129
  store i32 0, i32* %1, align 4
  br label %134

134:                                              ; preds = %133, %89, %73
  %135 = load i32, i32* %1, align 4
  ret i32 %135
}

declare dso_local i32 @__isoc99_scanf(i8*, ...) #1

; Function Attrs: nounwind readonly
declare dso_local i64 @strlen(i8*) #2

declare dso_local i32 @printf(i8*, ...) #1


!llvm.module.flags = !{!0}
!llvm.ident = !{!1}

!0 = !{i32 1, !"wchar_size", i32 4}
!1 = !{!"clang version 10.0.0-4ubuntu1 "}
